#include <math.h>
#include <stdio.h>
#include <stdlib.h>
#include <string.h>

void main()
{
	char a[1000],b[1000],t;
	int i,j,na,nb;
	scanf("%s %s",a,b);
	na=strlen(a);
	nb=strlen(b);
	if(na!=nb)printf("NO\n");
	else
	{
		for(i=0;i<na;i++)
		{
			for(j=i;j<nb;j++)
			{
				if(a[i]==b[j])
				{
					t=b[j];
					b[j]=b[i];
					b[i]=t;
				}
			}
		}

		if(strcmp(a,b)==0)
			printf("YES\n");
		else
			printf("NO\n");
}}